target datalayout = "e-m:e-p270:32:32-p271:32:32-p272:64:64-i64:64-i128:128-f80:128-n8:16:32:64-S128"
target triple = "x86_64-unknown-linux-gnu"

%"class.Imath_3_2::Vec3" = type { float, float, float }
%"class.Imf_3_2::Array2D" = type { i64, i64, ptr }
%"class.Imf_3_2::TileDescription" = type { i32, i32, i32, i32 }
%"struct.Imf_3_2::Rgba" = type { %"class.Imath_3_2::half", %"class.Imath_3_2::half", %"class.Imath_3_2::half", %"class.Imath_3_2::half" }
%"class.Imath_3_2::half" = type { i16 }
%"class.Imf_3_2::TiledRgbaInputFile::FromYa" = type { ptr, i32, i32, %"class.Imath_3_2::Vec3", %"class.Imf_3_2::Array2D", ptr, i64, i64 }

; Function Attrs: mustprogress nounwind uwtable
define linkonce_odr hidden void @_ZN7Imf_3_24RgbaC2Ev(ptr noundef nonnull align 2 dereferenceable(8) %this) unnamed_addr #5 comdat align 2 {
entry:
  %this.addr = alloca ptr, align 8
  store ptr %this, ptr %this.addr, align 8
  ret void
}

; Function Attrs: mustprogress nounwind uwtable
define linkonce_odr hidden void @_ZN7Imf_3_27Array2DINS_4RgbaEED2Ev(ptr noundef nonnull align 8 dereferenceable(24) %this) unnamed_addr #5 comdat align 2 {
entry:
  %this.addr = alloca ptr, align 8
  store ptr %this, ptr %this.addr, align 8
  %this1 = load ptr, ptr %this.addr, align 8
  %_data = getelementptr inbounds %"class.Imf_3_2::Array2D", ptr %this1, i32 0, i32 2
  %0 = load ptr, ptr %_data, align 8
  %isnull = icmp eq ptr %0, null
  br i1 %isnull, label %delete.end, label %delete.notnull

delete.notnull:                                   ; preds = %entry
  call void @_ZdaPv(ptr noundef %0) #13
  br label %delete.end

delete.end:                                       ; preds = %delete.notnull, %entry
  ret void
}

; Function Attrs: mustprogress uwtable
define linkonce_odr hidden void @_ZN7Imf_3_27Array2DINS_4RgbaEE11resizeEraseEll(ptr noundef nonnull align 8 dereferenceable(24) %this, i64 noundef %sizeX, i64 noundef %sizeY) #4 comdat align 2 personality ptr @__gxx_personality_v0 {
entry:
  %this.addr = alloca ptr, align 8
  %sizeX.addr = alloca i64, align 8
  %sizeY.addr = alloca i64, align 8
  %tmp = alloca ptr, align 8
  %exn.slot = alloca ptr, align 8
  %ehselector.slot = alloca i32, align 4
  store ptr %this, ptr %this.addr, align 8
  store i64 %sizeX, ptr %sizeX.addr, align 8
  store i64 %sizeY, ptr %sizeY.addr, align 8
  %this1 = load ptr, ptr %this.addr, align 8
  %0 = load i64, ptr %sizeX.addr, align 8
  %1 = load i64, ptr %sizeY.addr, align 8
  %mul = mul nsw i64 %0, %1
  %2 = call { i64, i1 } @llvm.umul.with.overflow.i64(i64 %mul, i64 8)
  %3 = extractvalue { i64, i1 } %2, 1
  %4 = extractvalue { i64, i1 } %2, 0
  %5 = select i1 %3, i64 -1, i64 %4
  %call = call noalias noundef nonnull ptr @_Znam(i64 noundef %5) #12
  %isempty = icmp eq i64 %mul, 0
  br i1 %isempty, label %arrayctor.cont, label %new.ctorloop

new.ctorloop:                                     ; preds = %entry
  %arrayctor.end = getelementptr inbounds %"struct.Imf_3_2::Rgba", ptr %call, i64 %mul
  br label %arrayctor.loop

arrayctor.loop:                                   ; preds = %invoke.cont, %new.ctorloop
  %arrayctor.cur = phi ptr [ %call, %new.ctorloop ], [ %arrayctor.next, %invoke.cont ]
  invoke void @_ZN7Imf_3_24RgbaC2Ev(ptr noundef nonnull align 2 dereferenceable(8) %arrayctor.cur)
          to label %invoke.cont unwind label %lpad

invoke.cont:                                      ; preds = %arrayctor.loop
  %arrayctor.next = getelementptr inbounds %"struct.Imf_3_2::Rgba", ptr %arrayctor.cur, i64 1
  %arrayctor.done = icmp eq ptr %arrayctor.next, %arrayctor.end
  br i1 %arrayctor.done, label %arrayctor.cont, label %arrayctor.loop

arrayctor.cont:                                   ; preds = %invoke.cont, %entry
  store ptr %call, ptr %tmp, align 8
  %_data = getelementptr inbounds %"class.Imf_3_2::Array2D", ptr %this1, i32 0, i32 2
  %6 = load ptr, ptr %_data, align 8
  %isnull = icmp eq ptr %6, null
  br i1 %isnull, label %delete.end, label %delete.notnull

delete.notnull:                                   ; preds = %arrayctor.cont
  call void @_ZdaPv(ptr noundef %6) #13
  br label %delete.end

delete.end:                                       ; preds = %delete.notnull, %arrayctor.cont
  %7 = load i64, ptr %sizeX.addr, align 8
  %_sizeX = getelementptr inbounds %"class.Imf_3_2::Array2D", ptr %this1, i32 0, i32 0
  store i64 %7, ptr %_sizeX, align 8
  %8 = load i64, ptr %sizeY.addr, align 8
  %_sizeY = getelementptr inbounds %"class.Imf_3_2::Array2D", ptr %this1, i32 0, i32 1
  store i64 %8, ptr %_sizeY, align 8
  %9 = load ptr, ptr %tmp, align 8
  %_data2 = getelementptr inbounds %"class.Imf_3_2::Array2D", ptr %this1, i32 0, i32 2
  store ptr %9, ptr %_data2, align 8
  ret void

lpad:                                             ; preds = %arrayctor.loop
  %10 = landingpad { ptr, i32 }
          cleanup
  %11 = extractvalue { ptr, i32 } %10, 0
  store ptr %11, ptr %exn.slot, align 8
  %12 = extractvalue { ptr, i32 } %10, 1
  store i32 %12, ptr %ehselector.slot, align 4
  call void @_ZdaPv(ptr noundef %call) #13
  br label %eh.resume

eh.resume:                                        ; preds = %lpad
  %exn = load ptr, ptr %exn.slot, align 8
  %sel = load i32, ptr %ehselector.slot, align 4
  %lpad.val = insertvalue { ptr, i32 } poison, ptr %exn, 0
  %lpad.val3 = insertvalue { ptr, i32 } %lpad.val, i32 %sel, 1
  resume { ptr, i32 } %lpad.val3
}

; Function Attrs: mustprogress nounwind uwtable
define linkonce_odr hidden noundef nonnull align 4 dereferenceable(12) ptr @_ZN9Imath_3_24Vec3IfEaSERKS1_(ptr noundef nonnull align 4 dereferenceable(12) %this, ptr noundef nonnull align 4 dereferenceable(12) %v) #5 comdat align 2 {
entry:
  %this.addr = alloca ptr, align 8
  %v.addr = alloca ptr, align 8
  store ptr %this, ptr %this.addr, align 8
  store ptr %v, ptr %v.addr, align 8
  %this1 = load ptr, ptr %this.addr, align 8
  %0 = load ptr, ptr %v.addr, align 8
  %x = getelementptr inbounds %"class.Imath_3_2::Vec3", ptr %0, i32 0, i32 0
  %1 = load float, ptr %x, align 4
  %x2 = getelementptr inbounds %"class.Imath_3_2::Vec3", ptr %this1, i32 0, i32 0
  store float %1, ptr %x2, align 4
  %2 = load ptr, ptr %v.addr, align 8
  %y = getelementptr inbounds %"class.Imath_3_2::Vec3", ptr %2, i32 0, i32 1
  %3 = load float, ptr %y, align 4
  %y3 = getelementptr inbounds %"class.Imath_3_2::Vec3", ptr %this1, i32 0, i32 1
  store float %3, ptr %y3, align 4
  %4 = load ptr, ptr %v.addr, align 8
  %z = getelementptr inbounds %"class.Imath_3_2::Vec3", ptr %4, i32 0, i32 2
  %5 = load float, ptr %z, align 4
  %z4 = getelementptr inbounds %"class.Imath_3_2::Vec3", ptr %this1, i32 0, i32 2
  store float %5, ptr %z4, align 4
  ret ptr %this1
}

; Function Attrs: mustprogress nounwind uwtable
define linkonce_odr hidden void @_ZN7Imf_3_27Array2DINS_4RgbaEEC2Ev(ptr noundef nonnull align 8 dereferenceable(24) %this) unnamed_addr #5 comdat align 2 {
entry:
  %this.addr = alloca ptr, align 8
  store ptr %this, ptr %this.addr, align 8
  %this1 = load ptr, ptr %this.addr, align 8
  %_sizeX = getelementptr inbounds %"class.Imf_3_2::Array2D", ptr %this1, i32 0, i32 0
  store i64 0, ptr %_sizeX, align 8
  %_sizeY = getelementptr inbounds %"class.Imf_3_2::Array2D", ptr %this1, i32 0, i32 1
  store i64 0, ptr %_sizeY, align 8
  %_data = getelementptr inbounds %"class.Imf_3_2::Array2D", ptr %this1, i32 0, i32 2
  store ptr null, ptr %_data, align 8
  ret void
}

; Function Attrs: mustprogress nounwind uwtable
define linkonce_odr hidden void @_ZN9Imath_3_24Vec3IfEC2Ev(ptr noundef nonnull align 4 dereferenceable(12) %this) unnamed_addr #5 comdat align 2 {
entry:
  %this.addr = alloca ptr, align 8
  store ptr %this, ptr %this.addr, align 8
  ret void
}

; Function Attrs: mustprogress uwtable
define void @_ZN7Imf_3_218TiledRgbaInputFile6FromYaC2ERNS_14TiledInputFileE(ptr noundef nonnull align 8 dereferenceable(80) %this, ptr noundef nonnull align 8 dereferenceable(16) %inputFile) unnamed_addr #4 align 2 personality ptr @__gxx_personality_v0 {
entry:
  %this.addr = alloca ptr, align 8
  %inputFile.addr = alloca ptr, align 8
  %td = alloca ptr, align 8
  %exn.slot = alloca ptr, align 8
  %ehselector.slot = alloca i32, align 4
  %ref.tmp = alloca %"class.Imath_3_2::Vec3", align 4
  store ptr %this, ptr %this.addr, align 8
  store ptr %inputFile, ptr %inputFile.addr, align 8
  %this1 = load ptr, ptr %this.addr, align 8
  %_inputFile = getelementptr inbounds %"class.Imf_3_2::TiledRgbaInputFile::FromYa", ptr %this1, i32 0, i32 0
  %0 = load ptr, ptr %inputFile.addr, align 8
  store ptr %0, ptr %_inputFile, align 8
  %_yw = getelementptr inbounds %"class.Imf_3_2::TiledRgbaInputFile::FromYa", ptr %this1, i32 0, i32 3
  call void @_ZN9Imath_3_24Vec3IfEC2Ev(ptr noundef nonnull align 4 dereferenceable(12) %_yw) #3
  %_buf = getelementptr inbounds %"class.Imf_3_2::TiledRgbaInputFile::FromYa", ptr %this1, i32 0, i32 4
  call void @_ZN7Imf_3_27Array2DINS_4RgbaEEC2Ev(ptr noundef nonnull align 8 dereferenceable(24) %_buf)
  %1 = load ptr, ptr %inputFile.addr, align 8
  %call = invoke noundef nonnull align 8 dereferenceable(49) ptr @_ZNK7Imf_3_214TiledInputFile6headerEv(ptr noundef nonnull align 8 dereferenceable(16) %1)
          to label %invoke.cont unwind label %lpad

invoke.cont:                                      ; preds = %entry
  %call3 = invoke noundef nonnull align 4 dereferenceable(16) ptr @_ZNK7Imf_3_26Header15tileDescriptionEv(ptr noundef nonnull align 8 dereferenceable(49) %call)
          to label %invoke.cont2 unwind label %lpad

invoke.cont2:                                     ; preds = %invoke.cont
  store ptr %call3, ptr %td, align 8
  %2 = load ptr, ptr %td, align 8
  %xSize = getelementptr inbounds %"class.Imf_3_2::TileDescription", ptr %2, i32 0, i32 0
  %3 = load i32, ptr %xSize, align 4
  %_tileXSize = getelementptr inbounds %"class.Imf_3_2::TiledRgbaInputFile::FromYa", ptr %this1, i32 0, i32 1
  store i32 %3, ptr %_tileXSize, align 8
  %4 = load ptr, ptr %td, align 8
  %ySize = getelementptr inbounds %"class.Imf_3_2::TileDescription", ptr %4, i32 0, i32 1
  %5 = load i32, ptr %ySize, align 4
  %_tileYSize = getelementptr inbounds %"class.Imf_3_2::TiledRgbaInputFile::FromYa", ptr %this1, i32 0, i32 2
  store i32 %5, ptr %_tileYSize, align 4
  %_inputFile4 = getelementptr inbounds %"class.Imf_3_2::TiledRgbaInputFile::FromYa", ptr %this1, i32 0, i32 0
  %6 = load ptr, ptr %_inputFile4, align 8
  %call6 = invoke noundef nonnull align 8 dereferenceable(49) ptr @_ZNK7Imf_3_214TiledInputFile6headerEv(ptr noundef nonnull align 8 dereferenceable(16) %6)
          to label %invoke.cont5 unwind label %lpad

invoke.cont5:                                     ; preds = %invoke.cont2
  invoke void @_ZN7Imf_3_212_GLOBAL__N_112ywFromHeaderERKNS_6HeaderE(ptr sret(%"class.Imath_3_2::Vec3") align 4 %ref.tmp, ptr noundef nonnull align 8 dereferenceable(49) %call6)
          to label %invoke.cont7 unwind label %lpad

invoke.cont7:                                     ; preds = %invoke.cont5
  %_yw8 = getelementptr inbounds %"class.Imf_3_2::TiledRgbaInputFile::FromYa", ptr %this1, i32 0, i32 3
  %call9 = call noundef nonnull align 4 dereferenceable(12) ptr @_ZN9Imath_3_24Vec3IfEaSERKS1_(ptr noundef nonnull align 4 dereferenceable(12) %_yw8, ptr noundef nonnull align 4 dereferenceable(12) %ref.tmp) #3
  %_buf10 = getelementptr inbounds %"class.Imf_3_2::TiledRgbaInputFile::FromYa", ptr %this1, i32 0, i32 4
  %_tileYSize11 = getelementptr inbounds %"class.Imf_3_2::TiledRgbaInputFile::FromYa", ptr %this1, i32 0, i32 2
  %7 = load i32, ptr %_tileYSize11, align 4
  %conv = zext i32 %7 to i64
  %_tileXSize12 = getelementptr inbounds %"class.Imf_3_2::TiledRgbaInputFile::FromYa", ptr %this1, i32 0, i32 1
  %8 = load i32, ptr %_tileXSize12, align 8
  %conv13 = zext i32 %8 to i64
  invoke void @_ZN7Imf_3_27Array2DINS_4RgbaEE11resizeEraseEll(ptr noundef nonnull align 8 dereferenceable(24) %_buf10, i64 noundef %conv, i64 noundef %conv13)
          to label %invoke.cont14 unwind label %lpad

invoke.cont14:                                    ; preds = %invoke.cont7
  %_fbBase = getelementptr inbounds %"class.Imf_3_2::TiledRgbaInputFile::FromYa", ptr %this1, i32 0, i32 5
  store ptr null, ptr %_fbBase, align 8
  %_fbXStride = getelementptr inbounds %"class.Imf_3_2::TiledRgbaInputFile::FromYa", ptr %this1, i32 0, i32 6
  store i64 0, ptr %_fbXStride, align 8
  %_fbYStride = getelementptr inbounds %"class.Imf_3_2::TiledRgbaInputFile::FromYa", ptr %this1, i32 0, i32 7
  store i64 0, ptr %_fbYStride, align 8
  ret void

lpad:                                             ; preds = %invoke.cont7, %invoke.cont5, %invoke.cont2, %invoke.cont, %entry
  %9 = landingpad { ptr, i32 }
          cleanup
  %10 = extractvalue { ptr, i32 } %9, 0
  store ptr %10, ptr %exn.slot, align 8
  %11 = extractvalue { ptr, i32 } %9, 1
  store i32 %11, ptr %ehselector.slot, align 4
  call void @_ZN7Imf_3_27Array2DINS_4RgbaEED2Ev(ptr noundef nonnull align 8 dereferenceable(24) %_buf) #3
  br label %eh.resume

eh.resume:                                        ; preds = %lpad
  %exn = load ptr, ptr %exn.slot, align 8
  %sel = load i32, ptr %ehselector.slot, align 4
  %lpad.val = insertvalue { ptr, i32 } poison, ptr %exn, 0
  %lpad.val15 = insertvalue { ptr, i32 } %lpad.val, i32 %sel, 1
  resume { ptr, i32 } %lpad.val15
}